; ModuleID = '51/517.c'
source_filename = "51/517.c"
target datalayout = "e-m:e-p270:32:32-p271:32:32-p272:64:64-i64:64-f80:128-n8:16:32:64-S128"
target triple = "x86_64-pc-linux-gnu"

@.str = private unnamed_addr constant [3 x i8] c"%d\00", align 1
@.str.1 = private unnamed_addr constant [3 x i8] c"%c\00", align 1
@.str.2 = private unnamed_addr constant [4 x i8] c"%d\0A\00", align 1
@.str.3 = private unnamed_addr constant [2 x i8] c"\0A\00", align 1
@.str.4 = private unnamed_addr constant [3 x i8] c"NO\00", align 1

; Function Attrs: noinline nounwind uwtable
define dso_local i32 @main() #0 {
  %1 = alloca i32, align 4
  %2 = alloca i32, align 4
  %3 = alloca i32, align 4
  %4 = alloca i32, align 4
  %5 = alloca i32, align 4
  %6 = alloca i32, align 4
  %7 = alloca i32, align 4
  %8 = alloca i32, align 4
  %9 = alloca i32, align 4
  %10 = alloca i32, align 4
  %11 = alloca [10000 x i32], align 16
  %12 = alloca [10000 x i8], align 16
  %13 = alloca i8, align 1
  store i32 0, i32* %1, align 4
  %14 = call i32 (i8*, ...) @__isoc99_scanf(i8* getelementptr inbounds ([3 x i8], [3 x i8]* @.str, i64 0, i64 0), i32* %2)
  %15 = call i32 (i8*, ...) @__isoc99_scanf(i8* getelementptr inbounds ([3 x i8], [3 x i8]* @.str.1, i64 0, i64 0), i8* %13)
  %16 = getelementptr inbounds [10000 x i8], [10000 x i8]* %12, i64 0, i64 0
  %17 = call i32 (i8*, ...) bitcast (i32 (...)* @gets to i32 (i8*, ...)*)(i8* %16)
  %18 = getelementptr inbounds [10000 x i8], [10000 x i8]* %12, i64 0, i64 0
  %19 = call i64 @strlen(i8* %18) #3
  %20 = trunc i64 %19 to i32
  store i32 %20, i32* %9, align 4
  store i32 0, i32* %4, align 4
  store i32 0, i32* %8, align 4
  store i32 0, i32* %7, align 4
  br label %21

21:                                               ; preds = %76, %0
  %22 = load i32, i32* %4, align 4
  %23 = sext i32 %22 to i64
  %24 = getelementptr inbounds [10000 x i8], [10000 x i8]* %12, i64 0, i64 %23
  %25 = load i8, i8* %24, align 1
  %26 = sext i8 %25 to i32
  %27 = icmp ne i32 %26, 0
  br i1 %27, label %28, label %83

28:                                               ; preds = %21
  store i32 0, i32* %6, align 4
  %29 = load i32, i32* %4, align 4
  store i32 %29, i32* %3, align 4
  br label %30

30:                                               ; preds = %67, %28
  %31 = load i32, i32* %3, align 4
  %32 = load i32, i32* %9, align 4
  %33 = icmp slt i32 %31, %32
  br i1 %33, label %34, label %70

34:                                               ; preds = %30
  store i32 1, i32* %5, align 4
  store i32 0, i32* %10, align 4
  br label %35

35:                                               ; preds = %57, %34
  %36 = load i32, i32* %10, align 4
  %37 = load i32, i32* %2, align 4
  %38 = icmp slt i32 %36, %37
  br i1 %38, label %39, label %60

39:                                               ; preds = %35
  %40 = load i32, i32* %4, align 4
  %41 = load i32, i32* %10, align 4
  %42 = add nsw i32 %40, %41
  %43 = sext i32 %42 to i64
  %44 = getelementptr inbounds [10000 x i8], [10000 x i8]* %12, i64 0, i64 %43
  %45 = load i8, i8* %44, align 1
  %46 = sext i8 %45 to i32
  %47 = load i32, i32* %3, align 4
  %48 = load i32, i32* %10, align 4
  %49 = add nsw i32 %47, %48
  %50 = sext i32 %49 to i64
  %51 = getelementptr inbounds [10000 x i8], [10000 x i8]* %12, i64 0, i64 %50
  %52 = load i8, i8* %51, align 1
  %53 = sext i8 %52 to i32
  %54 = icmp ne i32 %46, %53
  br i1 %54, label %55, label %56

55:                                               ; preds = %39
  store i32 0, i32* %5, align 4
  br label %56

56:                                               ; preds = %55, %39
  br label %57

57:                                               ; preds = %56
  %58 = load i32, i32* %10, align 4
  %59 = add nsw i32 %58, 1
  store i32 %59, i32* %10, align 4
  br label %35

60:                                               ; preds = %35
  %61 = load i32, i32* %5, align 4
  %62 = icmp eq i32 %61, 1
  br i1 %62, label %63, label %66

63:                                               ; preds = %60
  %64 = load i32, i32* %6, align 4
  %65 = add nsw i32 %64, 1
  store i32 %65, i32* %6, align 4
  br label %66

66:                                               ; preds = %63, %60
  br label %67

67:                                               ; preds = %66
  %68 = load i32, i32* %3, align 4
  %69 = add nsw i32 %68, 1
  store i32 %69, i32* %3, align 4
  br label %30

70:                                               ; preds = %30
  %71 = load i32, i32* %6, align 4
  %72 = load i32, i32* %7, align 4
  %73 = icmp sgt i32 %71, %72
  br i1 %73, label %74, label %76

74:                                               ; preds = %70
  %75 = load i32, i32* %6, align 4
  store i32 %75, i32* %7, align 4
  br label %76

76:                                               ; preds = %74, %70
  %77 = load i32, i32* %6, align 4
  %78 = load i32, i32* %4, align 4
  %79 = sext i32 %78 to i64
  %80 = getelementptr inbounds [10000 x i32], [10000 x i32]* %11, i64 0, i64 %79
  store i32 %77, i32* %80, align 4
  %81 = load i32, i32* %4, align 4
  %82 = add nsw i32 %81, 1
  store i32 %82, i32* %4, align 4
  br label %21

83:                                               ; preds = %21
  %84 = load i32, i32* %7, align 4
  %85 = icmp sgt i32 %84, 1
  br i1 %85, label %86, label %124

86:                                               ; preds = %83
  %87 = load i32, i32* %7, align 4
  %88 = call i32 (i8*, ...) @printf(i8* getelementptr inbounds ([4 x i8], [4 x i8]* @.str.2, i64 0, i64 0), i32 %87)
  store i32 0, i32* %3, align 4
  br label %89

89:                                               ; preds = %120, %86
  %90 = load i32, i32* %3, align 4
  %91 = load i32, i32* %9, align 4
  %92 = icmp slt i32 %90, %91
  br i1 %92, label %93, label %123

93:                                               ; preds = %89
  %94 = load i32, i32* %3, align 4
  %95 = sext i32 %94 to i64
  %96 = getelementptr inbounds [10000 x i32], [10000 x i32]* %11, i64 0, i64 %95
  %97 = load i32, i32* %96, align 4
  %98 = load i32, i32* %7, align 4
  %99 = icmp eq i32 %97, %98
  br i1 %99, label %100, label %119

100:                                              ; preds = %93
  store i32 0, i32* %10, align 4
  br label %101

101:                                              ; preds = %114, %100
  %102 = load i32, i32* %10, align 4
  %103 = load i32, i32* %2, align 4
  %104 = icmp slt i32 %102, %103
  br i1 %104, label %105, label %117

105:                                              ; preds = %101
  %106 = load i32, i32* %10, align 4
  %107 = load i32, i32* %3, align 4
  %108 = add nsw i32 %106, %107
  %109 = sext i32 %108 to i64
  %110 = getelementptr inbounds [10000 x i8], [10000 x i8]* %12, i64 0, i64 %109
  %111 = load i8, i8* %110, align 1
  %112 = sext i8 %111 to i32
  %113 = call i32 (i8*, ...) @printf(i8* getelementptr inbounds ([3 x i8], [3 x i8]* @.str.1, i64 0, i64 0), i32 %112)
  br label %114

114:                                              ; preds = %105
  %115 = load i32, i32* %10, align 4
  %116 = add nsw i32 %115, 1
  store i32 %116, i32* %10, align 4
  br label %101

117:                                              ; preds = %101
  %118 = call i32 (i8*, ...) @printf(i8* getelementptr inbounds ([2 x i8], [2 x i8]* @.str.3, i64 0, i64 0))
  br label %119

119:                                              ; preds = %117, %93
  br label %120

120:                                              ; preds = %119
  %121 = load i32, i32* %3, align 4
  %122 = add nsw i32 %121, 1
  store i32 %122, i32* %3, align 4
  br label %89

123:                                              ; preds = %89
  br label %126

124:                                              ; preds = %83
  %125 = call i32 (i8*, ...) @printf(i8* getelementptr inbounds ([3 x i8], [3 x i8]* @.str.4, i64 0, i64 0))
  br label %126

126:                                              ; preds = %124, %123
  ret i32 0
}

declare dso_local i32 @__isoc99_scanf(i8*, ...) #1

declare dso_local i32 @gets(...) #1

; Function Attrs: nounwind readonly
declare dso_local i64 @strlen(i8*) #2

declare dso_local i32 @printf(i8*, ...) #1


!llvm.module.flags = !{!0}
!llvm.ident = !{!1}

!0 = !{i32 1, !"wchar_size", i32 4}
!1 = !{!"clang version 10.0.0-4ubuntu1 "}
